; Function Attrs: nounwind uwtable
define ptr @l_Lean_Meta_mkSimpExt___lambda__1(ptr noundef %0, ptr noundef %1) #1 {
  %3 = ptrtoint ptr %1 to i64
  %4 = and i64 %3, 1
  %.not.i32 = icmp eq i64 %4, 0
  br i1 %.not.i32, label %8, label %5

5:                                                ; preds = %2
  %6 = lshr i64 %3, 1
  %7 = trunc i64 %6 to i32
  br label %lean_obj_tag.exit

8:                                                ; preds = %2
  %9 = getelementptr i8, ptr %1, i64 4
  %.val.i = load i32, ptr %9, align 4
  %10 = lshr i32 %.val.i, 24
  br label %lean_obj_tag.exit

lean_obj_tag.exit:                                ; preds = %5, %8
  %.0.i = phi i32 [ %7, %5 ], [ %10, %8 ]
  %11 = getelementptr inbounds nuw i8, ptr %1, i64 8
  %12 = load ptr, ptr %11, align 8, !tbaa !9
  %13 = ptrtoint ptr %12 to i64
  %14 = and i64 %13, 1
  %.not47 = icmp eq i64 %14, 0
  switch i32 %.0.i, label %45 [
    i32 0, label %15
    i32 1, label %30
  ]

15:                                               ; preds = %lean_obj_tag.exit
  br i1 %.not47, label %16, label %lean_inc.exit25

16:                                               ; preds = %15
  %.val.i33 = load i32, ptr %12, align 4, !tbaa !4
  %17 = icmp sgt i32 %.val.i33, 0
  br i1 %17, label %18, label %20, !prof !11

18:                                               ; preds = %16
  %19 = add nuw i32 %.val.i33, 1
  store i32 %19, ptr %12, align 4, !tbaa !4
  br label %lean_inc.exit25

20:                                               ; preds = %16
  %.not.i34 = icmp eq i32 %.val.i33, 0
  br i1 %.not.i34, label %lean_inc.exit25, label %21

21:                                               ; preds = %20
  tail call void @lean_inc_ref_cold(ptr noundef nonnull %12) #6
  br label %lean_inc.exit25

lean_inc.exit25:                                  ; preds = %21, %20, %18, %15
  br i1 %.not.i32, label %22, label %lean_dec.exit27

22:                                               ; preds = %lean_inc.exit25
  %23 = load i32, ptr %1, align 4, !tbaa !4
  %24 = icmp sgt i32 %23, 1
  br i1 %24, label %25, label %27, !prof !11

25:                                               ; preds = %22
  %26 = add nsw i32 %23, -1
  store i32 %26, ptr %1, align 4, !tbaa !4
  br label %lean_dec.exit27

27:                                               ; preds = %22
  %.not.i = icmp eq i32 %23, 0
  br i1 %.not.i, label %lean_dec.exit27, label %28

28:                                               ; preds = %27
  tail call void @lean_dec_ref_cold(ptr noundef nonnull %1) #6
  br label %lean_dec.exit27

lean_dec.exit27:                                  ; preds = %28, %27, %25, %lean_inc.exit25
  %29 = tail call ptr @l_Lean_Meta_addSimpTheoremEntry(ptr noundef %0, ptr noundef %12)
  br label %70

30:                                               ; preds = %lean_obj_tag.exit
  br i1 %.not47, label %31, label %lean_inc.exit24

31:                                               ; preds = %30
  %.val.i35 = load i32, ptr %12, align 4, !tbaa !4
  %32 = icmp sgt i32 %.val.i35, 0
  br i1 %32, label %33, label %35, !prof !11

33:                                               ; preds = %31
  %34 = add nuw i32 %.val.i35, 1
  store i32 %34, ptr %12, align 4, !tbaa !4
  br label %lean_inc.exit24

35:                                               ; preds = %31
  %.not.i36 = icmp eq i32 %.val.i35, 0
  br i1 %.not.i36, label %lean_inc.exit24, label %36

36:                                               ; preds = %35
  tail call void @lean_inc_ref_cold(ptr noundef nonnull %12) #6
  br label %lean_inc.exit24

lean_inc.exit24:                                  ; preds = %36, %35, %33, %30
  br i1 %.not.i32, label %37, label %lean_dec.exit26

37:                                               ; preds = %lean_inc.exit24
  %38 = load i32, ptr %1, align 4, !tbaa !4
  %39 = icmp sgt i32 %38, 1
  br i1 %39, label %40, label %42, !prof !11

40:                                               ; preds = %37
  %41 = add nsw i32 %38, -1
  store i32 %41, ptr %1, align 4, !tbaa !4
  br label %lean_dec.exit26

42:                                               ; preds = %37
  %.not.i28 = icmp eq i32 %38, 0
  br i1 %.not.i28, label %lean_dec.exit26, label %43

43:                                               ; preds = %42
  tail call void @lean_dec_ref_cold(ptr noundef nonnull %1) #6
  br label %lean_dec.exit26

lean_dec.exit26:                                  ; preds = %43, %42, %40, %lean_inc.exit24
  %44 = tail call ptr @l_Lean_Meta_SimpTheorems_addDeclToUnfoldCore(ptr noundef %0, ptr noundef %12)
  br label %70

45:                                               ; preds = %lean_obj_tag.exit
  br i1 %.not47, label %46, label %lean_inc.exit23

46:                                               ; preds = %45
  %.val.i38 = load i32, ptr %12, align 4, !tbaa !4
  %47 = icmp sgt i32 %.val.i38, 0
  br i1 %47, label %48, label %50, !prof !11

48:                                               ; preds = %46
  %49 = add nuw i32 %.val.i38, 1
  store i32 %49, ptr %12, align 4, !tbaa !4
  br label %lean_inc.exit23

50:                                               ; preds = %46
  %.not.i39 = icmp eq i32 %.val.i38, 0
  br i1 %.not.i39, label %lean_inc.exit23, label %51

51:                                               ; preds = %50
  tail call void @lean_inc_ref_cold(ptr noundef nonnull %12) #6
  br label %lean_inc.exit23

lean_inc.exit23:                                  ; preds = %51, %50, %48, %45
  %52 = getelementptr inbounds nuw i8, ptr %1, i64 16
  %53 = load ptr, ptr %52, align 8, !tbaa !9
  %54 = ptrtoint ptr %53 to i64
  %55 = and i64 %54, 1
  %.not48 = icmp eq i64 %55, 0
  br i1 %.not48, label %56, label %lean_inc.exit

56:                                               ; preds = %lean_inc.exit23
  %.val.i41 = load i32, ptr %53, align 4, !tbaa !4
  %57 = icmp sgt i32 %.val.i41, 0
  br i1 %57, label %58, label %60, !prof !11

58:                                               ; preds = %56
  %59 = add nuw i32 %.val.i41, 1
  store i32 %59, ptr %53, align 4, !tbaa !4
  br label %lean_inc.exit

60:                                               ; preds = %56
  %.not.i42 = icmp eq i32 %.val.i41, 0
  br i1 %.not.i42, label %lean_inc.exit, label %61

61:                                               ; preds = %60
  tail call void @lean_inc_ref_cold(ptr noundef nonnull %53) #6
  br label %lean_inc.exit

lean_inc.exit:                                    ; preds = %61, %60, %58, %lean_inc.exit23
  br i1 %.not.i32, label %62, label %lean_dec.exit

62:                                               ; preds = %lean_inc.exit
  %63 = load i32, ptr %1, align 4, !tbaa !4
  %64 = icmp sgt i32 %63, 1
  br i1 %64, label %65, label %67, !prof !11

65:                                               ; preds = %62
  %66 = add nsw i32 %63, -1
  store i32 %66, ptr %1, align 4, !tbaa !4
  br label %lean_dec.exit

67:                                               ; preds = %62
  %.not.i30 = icmp eq i32 %63, 0
  br i1 %.not.i30, label %lean_dec.exit, label %68

68:                                               ; preds = %67
  tail call void @lean_dec_ref_cold(ptr noundef nonnull %1) #6
  br label %lean_dec.exit

lean_dec.exit:                                    ; preds = %68, %67, %65, %lean_inc.exit
  %69 = tail call ptr @l_Lean_Meta_SimpTheorems_registerDeclToUnfoldThms(ptr noundef %0, ptr noundef %12, ptr noundef %53)
  br label %70

70:                                               ; preds = %lean_dec.exit, %lean_dec.exit26, %lean_dec.exit27
  %.0 = phi ptr [ %69, %lean_dec.exit ], [ %44, %lean_dec.exit26 ], [ %29, %lean_dec.exit27 ]
  ret ptr %.0
}